target datalayout = "e-m:e-p270:32:32-p271:32:32-p272:64:64-i64:64-i128:128-f80:128-n8:16:32:64-S128"
target triple = "x86_64-pc-linux-gnu"

%"class.clang::QualType" = type { %"class.llvm::PointerIntPair" }
%"class.llvm::PointerIntPair" = type { %"struct.llvm::detail::PunnedPointer" }
%"struct.llvm::detail::PunnedPointer" = type { [8 x i8] }
%"class.clang::Expr" = type { %"class.clang::ValueStmt", %"class.clang::QualType" }
%"class.clang::ValueStmt" = type { %"class.clang::Stmt" }
%"class.clang::Stmt" = type { %union.anon }
%union.anon = type { %"class.clang::Stmt::PseudoObjectExprBitfields" }
%"class.clang::Stmt::PseudoObjectExprBitfields" = type { i64 }
%"class.clang::ExtQualsTypeCommonBase" = type { ptr, %"class.clang::QualType" }
%"class.clang::Type.base" = type { %"class.clang::ExtQualsTypeCommonBase", %union.anon.1228 }
%union.anon.1228 = type { %"class.clang::Type::FunctionTypeBitfields" }
%"class.clang::Type::FunctionTypeBitfields" = type { i64 }
%"class.llvm::FoldingSetBase::Node" = type { ptr }
%"class.clang::Type" = type { %"class.clang::ExtQualsTypeCommonBase", %union.anon.1228, [8 x i8] }
%"class.clang::AtomicType" = type { %"class.clang::Type.base", %"class.llvm::FoldingSetBase::Node", %"class.clang::QualType", [8 x i8] }
%"struct.(anonymous namespace)::IntRange" = type <{ i32, i8, [3 x i8] }>

; Function Attrs: mustprogress nounwind uwtable
define linkonce_odr hidden noundef i32 @_ZNK5clang4Type12getTypeClassEv(ptr noundef nonnull align 16 dereferenceable(24) %0) #0 comdat align 2 {
  %2 = alloca ptr, align 8
  store ptr %0, ptr %2, align 8
  %3 = load ptr, ptr %2, align 8
  %4 = getelementptr inbounds nuw %"class.clang::Type", ptr %3, i32 0, i32 1
  %5 = load i8, ptr %4, align 16
  %6 = zext i8 %5 to i32
  ret i32 %6
}

; Function Attrs: mustprogress nounwind uwtable
define linkonce_odr hidden noundef zeroext i1 @_ZN5clang10AtomicType7classofEPKNS_4TypeE(ptr noundef %0) #0 comdat align 2 {
  %2 = alloca ptr, align 8
  store ptr %0, ptr %2, align 8
  %3 = load ptr, ptr %2, align 8
  %4 = call noundef i32 @_ZNK5clang4Type12getTypeClassEv(ptr noundef nonnull align 16 dereferenceable(24) %3)
  %5 = icmp eq i32 %4, 7
  ret i1 %5
}

; Function Attrs: mustprogress nounwind uwtable
define linkonce_odr hidden noundef zeroext i1 @_ZN4llvm8isa_implIN5clang10AtomicTypeENS1_4TypeEvE4doitERKS3_(ptr noundef nonnull align 16 dereferenceable(24) %0) #0 comdat align 2 {
  %2 = alloca ptr, align 8
  store ptr %0, ptr %2, align 8
  %3 = load ptr, ptr %2, align 8
  %4 = call noundef zeroext i1 @_ZN5clang10AtomicType7classofEPKNS_4TypeE(ptr noundef %3)
  ret i1 %4
}

; Function Attrs: mustprogress nounwind uwtable
define linkonce_odr hidden noundef zeroext i1 @_ZN4llvm11isa_impl_clIN5clang10AtomicTypeEPKNS1_4TypeEE4doitES5_(ptr noundef %0) #0 comdat align 2 {
  %2 = alloca ptr, align 8
  store ptr %0, ptr %2, align 8
  %3 = load ptr, ptr %2, align 8
  %4 = call noundef zeroext i1 @_ZN4llvm8isa_implIN5clang10AtomicTypeENS1_4TypeEvE4doitERKS3_(ptr noundef nonnull align 16 dereferenceable(24) %3)
  ret i1 %4
}

; Function Attrs: mustprogress nounwind uwtable
define linkonce_odr hidden noundef nonnull align 8 dereferenceable(8) ptr @_ZN4llvm13simplify_typeIPKN5clang4TypeEE18getSimplifiedValueERS4_(ptr noundef nonnull align 8 dereferenceable(8) %0) #0 comdat align 2 {
  %2 = alloca ptr, align 8
  store ptr %0, ptr %2, align 8
  %3 = load ptr, ptr %2, align 8
  ret ptr %3
}

; Function Attrs: mustprogress nounwind uwtable
define linkonce_odr hidden noundef zeroext i1 @_ZN4llvm13isa_impl_wrapIN5clang10AtomicTypeEPKNS1_4TypeES5_E4doitERKS5_(ptr noundef nonnull align 8 dereferenceable(8) %0) #0 comdat align 2 {
  %2 = alloca ptr, align 8
  store ptr %0, ptr %2, align 8
  %3 = load ptr, ptr %2, align 8
  %4 = load ptr, ptr %3, align 8
  %5 = call noundef zeroext i1 @_ZN4llvm11isa_impl_clIN5clang10AtomicTypeEPKNS1_4TypeEE4doitES5_(ptr noundef %4)
  ret i1 %5
}

; Function Attrs: mustprogress nounwind uwtable
define linkonce_odr hidden noundef ptr @_ZN4llvm13simplify_typeIKPKN5clang4TypeEE18getSimplifiedValueERS5_(ptr noundef nonnull align 8 dereferenceable(8) %0) #0 comdat align 2 {
  %2 = alloca ptr, align 8
  store ptr %0, ptr %2, align 8
  %3 = load ptr, ptr %2, align 8
  %4 = call noundef nonnull align 8 dereferenceable(8) ptr @_ZN4llvm13simplify_typeIPKN5clang4TypeEE18getSimplifiedValueERS4_(ptr noundef nonnull align 8 dereferenceable(8) %3)
  %5 = load ptr, ptr %4, align 8
  ret ptr %5
}

; Function Attrs: mustprogress nounwind uwtable
define linkonce_odr hidden noundef ptr @_ZN4llvm13simplify_typeIN5clang8QualTypeEE18getSimplifiedValueES2_(i64 %0) #0 comdat align 2 {
  %2 = alloca %"class.clang::QualType", align 8
  %3 = getelementptr inbounds nuw %"class.clang::QualType", ptr %2, i32 0, i32 0
  %4 = getelementptr inbounds nuw %"class.llvm::PointerIntPair", ptr %3, i32 0, i32 0
  %5 = getelementptr inbounds nuw %"struct.llvm::detail::PunnedPointer", ptr %4, i32 0, i32 0
  store i64 %0, ptr %5, align 8
  %6 = call noundef ptr @_ZNK5clang8QualType10getTypePtrEv(ptr noundef nonnull align 8 dereferenceable(8) %2)
  ret ptr %6
}

; Function Attrs: mustprogress nounwind uwtable
define linkonce_odr hidden noundef zeroext i1 @_ZN4llvm13isa_impl_wrapIN5clang10AtomicTypeEKPKNS1_4TypeES5_E4doitERS6_(ptr noundef nonnull align 8 dereferenceable(8) %0) #0 comdat align 2 {
  %2 = alloca ptr, align 8
  %3 = alloca ptr, align 8
  store ptr %0, ptr %2, align 8
  %4 = load ptr, ptr %2, align 8
  %5 = call noundef ptr @_ZN4llvm13simplify_typeIKPKN5clang4TypeEE18getSimplifiedValueERS5_(ptr noundef nonnull align 8 dereferenceable(8) %4)
  store ptr %5, ptr %3, align 8
  %6 = call noundef zeroext i1 @_ZN4llvm13isa_impl_wrapIN5clang10AtomicTypeEPKNS1_4TypeES5_E4doitERKS5_(ptr noundef nonnull align 8 dereferenceable(8) %3)
  ret i1 %6
}

; Function Attrs: mustprogress nounwind uwtable
define linkonce_odr hidden noundef i64 @_ZNK4llvm6detail13PunnedPointerINS_12PointerUnionIJPKN5clang4TypeEPKNS3_8ExtQualsEEEEE5asIntEv(ptr noundef nonnull align 8 dereferenceable(8) %0) #0 comdat align 2 {
  %2 = alloca ptr, align 8
  %3 = alloca i64, align 8
  store ptr %0, ptr %2, align 8
  %4 = load ptr, ptr %2, align 8
  store i64 0, ptr %3, align 8
  %5 = getelementptr inbounds nuw %"struct.llvm::detail::PunnedPointer", ptr %4, i32 0, i32 0
  %6 = getelementptr inbounds [8 x i8], ptr %5, i64 0, i64 0
  call void @llvm.memcpy.p0.p0.i64(ptr align 8 %3, ptr align 8 %6, i64 8, i1 false)
  %7 = load i64, ptr %3, align 8
  ret i64 %7
}

; Function Attrs: mustprogress nounwind uwtable
define linkonce_odr hidden noundef ptr @_ZN4llvm16cast_convert_valIN5clang10AtomicTypeEPKNS1_4TypeES5_E4doitES5_(ptr noundef %0) #0 comdat align 2 {
  %2 = alloca ptr, align 8
  store ptr %0, ptr %2, align 8
  %3 = load ptr, ptr %2, align 8
  ret ptr %3
}

; Function Attrs: mustprogress nounwind uwtable
define linkonce_odr hidden noundef ptr @_ZN4llvm13simplify_typeIKN5clang8QualTypeEE18getSimplifiedValueERS3_(ptr noundef nonnull align 8 dereferenceable(8) %0) #0 comdat align 2 {
  %2 = alloca ptr, align 8
  %3 = alloca %"class.clang::QualType", align 8
  store ptr %0, ptr %2, align 8
  %4 = load ptr, ptr %2, align 8
  call void @llvm.memcpy.p0.p0.i64(ptr align 8 %3, ptr align 8 %4, i64 8, i1 false)
  %5 = getelementptr inbounds nuw %"class.clang::QualType", ptr %3, i32 0, i32 0
  %6 = getelementptr inbounds nuw %"class.llvm::PointerIntPair", ptr %5, i32 0, i32 0
  %7 = getelementptr inbounds nuw %"struct.llvm::detail::PunnedPointer", ptr %6, i32 0, i32 0
  %8 = load i64, ptr %7, align 8
  %9 = call noundef ptr @_ZN4llvm13simplify_typeIN5clang8QualTypeEE18getSimplifiedValueES2_(i64 %8)
  ret ptr %9
}

; Function Attrs: mustprogress nounwind uwtable
define linkonce_odr hidden noundef ptr @_ZN4llvm8CastInfoIN5clang10AtomicTypeEPKNS1_4TypeEvE10castFailedEv() #0 comdat align 2 {
  ret ptr null
}

; Function Attrs: mustprogress nounwind uwtable
define linkonce_odr hidden noundef zeroext i1 @_ZN4llvm14CastIsPossibleIN5clang10AtomicTypeEPKNS1_4TypeEvE10isPossibleERKS5_(ptr noundef nonnull align 8 dereferenceable(8) %0) #0 comdat align 2 {
  %2 = alloca ptr, align 8
  store ptr %0, ptr %2, align 8
  %3 = load ptr, ptr %2, align 8
  %4 = call noundef zeroext i1 @_ZN4llvm13isa_impl_wrapIN5clang10AtomicTypeEKPKNS1_4TypeES5_E4doitERS6_(ptr noundef nonnull align 8 dereferenceable(8) %3)
  ret i1 %4
}

; Function Attrs: mustprogress nounwind uwtable
define linkonce_odr hidden noundef ptr @_ZNK4llvm14PointerIntPairINS_12PointerUnionIJPKN5clang4TypeEPKNS2_8ExtQualsEEEELj3EjNS_21PointerLikeTypeTraitsIS9_EENS_18PointerIntPairInfoIS9_Lj3ESB_EEE14getOpaqueValueEv(ptr noundef nonnull align 8 dereferenceable(8) %0) #0 comdat align 2 {
  %2 = alloca ptr, align 8
  store ptr %0, ptr %2, align 8
  %3 = load ptr, ptr %2, align 8
  %4 = getelementptr inbounds nuw %"class.llvm::PointerIntPair", ptr %3, i32 0, i32 0
  %5 = call noundef i64 @_ZNK4llvm6detail13PunnedPointerINS_12PointerUnionIJPKN5clang4TypeEPKNS3_8ExtQualsEEEEE5asIntEv(ptr noundef nonnull align 8 dereferenceable(8) %4)
  %6 = inttoptr i64 %5 to ptr
  ret ptr %6
}

; Function Attrs: mustprogress nounwind uwtable
define linkonce_odr hidden noundef ptr @_ZN4llvm8CastInfoIN5clang10AtomicTypeEPKNS1_4TypeEvE6doCastERKS5_(ptr noundef nonnull align 8 dereferenceable(8) %0) #0 comdat align 2 {
  %2 = alloca ptr, align 8
  store ptr %0, ptr %2, align 8
  %3 = load ptr, ptr %2, align 8
  %4 = load ptr, ptr %3, align 8
  %5 = call noundef ptr @_ZN4llvm16cast_convert_valIN5clang10AtomicTypeEPKNS1_4TypeES5_E4doitES5_(ptr noundef %4)
  ret ptr %5
}

; Function Attrs: mustprogress nounwind uwtable
define linkonce_odr hidden noundef zeroext i1 @_ZN4llvm8CastInfoIN5clang10AtomicTypeEKNS1_8QualTypeEvE10isPossibleERS4_(ptr noundef nonnull align 8 dereferenceable(8) %0) #0 comdat align 2 {
  %2 = alloca ptr, align 8
  %3 = alloca ptr, align 8
  store ptr %0, ptr %2, align 8
  %4 = load ptr, ptr %2, align 8
  %5 = call noundef ptr @_ZN4llvm13simplify_typeIKN5clang8QualTypeEE18getSimplifiedValueERS3_(ptr noundef nonnull align 8 dereferenceable(8) %4)
  store ptr %5, ptr %3, align 8
  %6 = call noundef zeroext i1 @_ZN4llvm14CastIsPossibleIN5clang10AtomicTypeEPKNS1_4TypeEvE10isPossibleERKS5_(ptr noundef nonnull align 8 dereferenceable(8) %3)
  ret i1 %6
}

; Function Attrs: mustprogress nounwind uwtable
define linkonce_odr hidden noundef ptr @_ZN4llvm8CastInfoIN5clang10AtomicTypeEPKNS1_4TypeEvE16doCastIfPossibleERKS5_(ptr noundef nonnull align 8 dereferenceable(8) %0) #0 comdat align 2 {
  %2 = alloca ptr, align 8
  %3 = alloca ptr, align 8
  store ptr %0, ptr %3, align 8
  %4 = load ptr, ptr %3, align 8
  %5 = call noundef zeroext i1 @_ZN4llvm14CastIsPossibleIN5clang10AtomicTypeEPKNS1_4TypeEvE10isPossibleERKS5_(ptr noundef nonnull align 8 dereferenceable(8) %4)
  br i1 %5, label %8, label %6

6:                                                ; preds = %1
  %7 = call noundef ptr @_ZN4llvm8CastInfoIN5clang10AtomicTypeEPKNS1_4TypeEvE10castFailedEv()
  store ptr %7, ptr %2, align 8
  br label %11

8:                                                ; preds = %1
  %9 = load ptr, ptr %3, align 8
  %10 = call noundef ptr @_ZN4llvm8CastInfoIN5clang10AtomicTypeEPKNS1_4TypeEvE6doCastERKS5_(ptr noundef nonnull align 8 dereferenceable(8) %9)
  store ptr %10, ptr %2, align 8
  br label %11

11:                                               ; preds = %8, %6
  %12 = load ptr, ptr %2, align 8
  ret ptr %12
}

; Function Attrs: mustprogress nounwind uwtable
define linkonce_odr hidden noundef ptr @_ZNK5clang8QualType12getCommonPtrEv(ptr noundef nonnull align 8 dereferenceable(8) %0) #0 comdat align 2 {
  %2 = alloca ptr, align 8
  %3 = alloca i64, align 8
  store ptr %0, ptr %2, align 8
  %4 = load ptr, ptr %2, align 8
  %5 = getelementptr inbounds nuw %"class.clang::QualType", ptr %4, i32 0, i32 0
  %6 = call noundef ptr @_ZNK4llvm14PointerIntPairINS_12PointerUnionIJPKN5clang4TypeEPKNS2_8ExtQualsEEEELj3EjNS_21PointerLikeTypeTraitsIS9_EENS_18PointerIntPairInfoIS9_Lj3ESB_EEE14getOpaqueValueEv(ptr noundef nonnull align 8 dereferenceable(8) %5)
  %7 = ptrtoint ptr %6 to i64
  store i64 %7, ptr %3, align 8
  %8 = load i64, ptr %3, align 8
  %9 = and i64 %8, -16
  store i64 %9, ptr %3, align 8
  %10 = load i64, ptr %3, align 8
  %11 = inttoptr i64 %10 to ptr
  ret ptr %11
}

; Function Attrs: mustprogress nounwind uwtable
define linkonce_odr hidden noundef ptr @_ZN4llvm4castIN5clang10AtomicTypeEKNS1_4TypeEEEDcPT0_(ptr noundef %0) #0 comdat {
  %2 = alloca ptr, align 8
  store ptr %0, ptr %2, align 8
  %3 = call noundef ptr @_ZN4llvm8CastInfoIN5clang10AtomicTypeEPKNS1_4TypeEvE6doCastERKS5_(ptr noundef nonnull align 8 dereferenceable(8) %2)
  ret ptr %3
}

; Function Attrs: mustprogress nounwind uwtable
define linkonce_odr hidden noundef zeroext i1 @_ZN4llvm3isaIN5clang10AtomicTypeENS1_8QualTypeEEEbRKT0_(ptr noundef nonnull align 8 dereferenceable(8) %0) #0 comdat {
  %2 = alloca ptr, align 8
  store ptr %0, ptr %2, align 8
  %3 = load ptr, ptr %2, align 8
  %4 = call noundef zeroext i1 @_ZN4llvm8CastInfoIN5clang10AtomicTypeEKNS1_8QualTypeEvE10isPossibleERS4_(ptr noundef nonnull align 8 dereferenceable(8) %3)
  ret i1 %4
}

; Function Attrs: mustprogress nounwind uwtable
define linkonce_odr hidden noundef ptr @_ZN4llvm8dyn_castIN5clang10AtomicTypeEKNS1_4TypeEEEDcPT0_(ptr noundef %0) #0 comdat {
  %2 = alloca ptr, align 8
  store ptr %0, ptr %2, align 8
  %3 = call noundef ptr @_ZN4llvm8CastInfoIN5clang10AtomicTypeEPKNS1_4TypeEvE16doCastIfPossibleERKS5_(ptr noundef nonnull align 8 dereferenceable(8) %2)
  ret ptr %3
}

; Function Attrs: mustprogress nounwind uwtable
define linkonce_odr hidden noundef ptr @_ZNK5clang8QualType10getTypePtrEv(ptr noundef nonnull align 8 dereferenceable(8) %0) #0 comdat align 2 {
  %2 = alloca ptr, align 8
  store ptr %0, ptr %2, align 8
  %3 = load ptr, ptr %2, align 8
  %4 = call noundef ptr @_ZNK5clang8QualType12getCommonPtrEv(ptr noundef nonnull align 8 dereferenceable(8) %3)
  %5 = getelementptr inbounds nuw %"class.clang::ExtQualsTypeCommonBase", ptr %4, i32 0, i32 0
  %6 = load ptr, ptr %5, align 8
  ret ptr %6
}

; Function Attrs: mustprogress nounwind uwtable
define linkonce_odr hidden i64 @_ZNK5clang10AtomicType12getValueTypeEv(ptr noundef nonnull align 16 dereferenceable(40) %0) #0 comdat align 2 {
  %2 = alloca %"class.clang::QualType", align 8
  %3 = alloca ptr, align 8
  store ptr %0, ptr %3, align 8
  %4 = load ptr, ptr %3, align 8
  %5 = getelementptr inbounds nuw %"class.clang::AtomicType", ptr %4, i32 0, i32 2
  call void @llvm.memcpy.p0.p0.i64(ptr align 8 %2, ptr align 16 %5, i64 8, i1 false)
  %6 = getelementptr inbounds nuw %"class.clang::QualType", ptr %2, i32 0, i32 0
  %7 = getelementptr inbounds nuw %"class.llvm::PointerIntPair", ptr %6, i32 0, i32 0
  %8 = getelementptr inbounds nuw %"struct.llvm::detail::PunnedPointer", ptr %7, i32 0, i32 0
  %9 = load i64, ptr %8, align 8
  ret i64 %9
}

; Function Attrs: mustprogress nounwind uwtable
define linkonce_odr noundef ptr @_ZNK5clang4Type5getAsINS_10AtomicTypeEEEPKT_v(ptr noundef nonnull align 16 dereferenceable(24) %0) #0 comdat align 2 {
  %2 = alloca ptr, align 8
  %3 = alloca ptr, align 8
  %4 = alloca ptr, align 8
  store ptr %0, ptr %3, align 8
  %5 = load ptr, ptr %3, align 8
  %6 = call noundef ptr @_ZN4llvm8dyn_castIN5clang10AtomicTypeEKNS1_4TypeEEEDcPT0_(ptr noundef %5)
  store ptr %6, ptr %4, align 8
  %7 = load ptr, ptr %4, align 8
  %8 = icmp ne ptr %7, null
  br i1 %8, label %9, label %11

9:                                                ; preds = %1
  %10 = load ptr, ptr %4, align 8
  store ptr %10, ptr %2, align 8
  br label %18

11:                                               ; preds = %1
  %12 = getelementptr inbounds nuw %"class.clang::ExtQualsTypeCommonBase", ptr %5, i32 0, i32 1
  %13 = call noundef zeroext i1 @_ZN4llvm3isaIN5clang10AtomicTypeENS1_8QualTypeEEEbRKT0_(ptr noundef nonnull align 8 dereferenceable(8) %12)
  br i1 %13, label %15, label %14

14:                                               ; preds = %11
  store ptr null, ptr %2, align 8
  br label %18

15:                                               ; preds = %11
  %16 = call noundef ptr @_ZNK5clang4Type27getUnqualifiedDesugaredTypeEv(ptr noundef nonnull align 16 dereferenceable(24) %5)
  %17 = call noundef ptr @_ZN4llvm4castIN5clang10AtomicTypeEKNS1_4TypeEEEDcPT0_(ptr noundef %16)
  store ptr %17, ptr %2, align 8
  br label %18

18:                                               ; preds = %15, %14, %9
  %19 = load ptr, ptr %2, align 8
  ret ptr %19
}

; Function Attrs: mustprogress nounwind uwtable
define linkonce_odr hidden noundef ptr @_ZNK5clang8QualTypeptEv(ptr noundef nonnull align 8 dereferenceable(8) %0) #0 comdat align 2 {
  %2 = alloca ptr, align 8
  store ptr %0, ptr %2, align 8
  %3 = load ptr, ptr %2, align 8
  %4 = call noundef ptr @_ZNK5clang8QualType10getTypePtrEv(ptr noundef nonnull align 8 dereferenceable(8) %3)
  ret ptr %4
}

; Function Attrs: mustprogress nounwind uwtable
define linkonce_odr hidden i64 @_ZNK5clang4Expr7getTypeEv(ptr noundef nonnull align 8 dereferenceable(16) %0) #0 comdat align 2 {
  %2 = alloca %"class.clang::QualType", align 8
  %3 = alloca ptr, align 8
  store ptr %0, ptr %3, align 8
  %4 = load ptr, ptr %3, align 8
  %5 = getelementptr inbounds nuw %"class.clang::Expr", ptr %4, i32 0, i32 1
  call void @llvm.memcpy.p0.p0.i64(ptr align 8 %2, ptr align 8 %5, i64 8, i1 false)
  %6 = getelementptr inbounds nuw %"class.clang::QualType", ptr %2, i32 0, i32 0
  %7 = getelementptr inbounds nuw %"class.llvm::PointerIntPair", ptr %6, i32 0, i32 0
  %8 = getelementptr inbounds nuw %"struct.llvm::detail::PunnedPointer", ptr %7, i32 0, i32 0
  %9 = load i64, ptr %8, align 8
  ret i64 %9
}

; Function Attrs: mustprogress nounwind uwtable
define internal i64 @_ZL11GetExprTypePKN5clang4ExprE(ptr noundef %0) #0 {
  %2 = alloca %"class.clang::QualType", align 8
  %3 = alloca ptr, align 8
  %4 = alloca ptr, align 8
  %5 = alloca %"class.clang::QualType", align 8
  store ptr %0, ptr %3, align 8
  %6 = load ptr, ptr %3, align 8
  %7 = call i64 @_ZNK5clang4Expr7getTypeEv(ptr noundef nonnull align 8 dereferenceable(16) %6)
  %8 = getelementptr inbounds nuw %"class.clang::QualType", ptr %2, i32 0, i32 0
  %9 = getelementptr inbounds nuw %"class.llvm::PointerIntPair", ptr %8, i32 0, i32 0
  %10 = getelementptr inbounds nuw %"struct.llvm::detail::PunnedPointer", ptr %9, i32 0, i32 0
  store i64 %7, ptr %10, align 8
  %11 = call noundef ptr @_ZNK5clang8QualTypeptEv(ptr noundef nonnull align 8 dereferenceable(8) %2)
  %12 = call noundef ptr @_ZNK5clang4Type5getAsINS_10AtomicTypeEEEPKT_v(ptr noundef nonnull align 16 dereferenceable(24) %11)
  store ptr %12, ptr %4, align 8
  %13 = load ptr, ptr %4, align 8
  %14 = icmp ne ptr %13, null
  br i1 %14, label %15, label %21

15:                                               ; preds = %1
  %16 = load ptr, ptr %4, align 8
  %17 = call i64 @_ZNK5clang10AtomicType12getValueTypeEv(ptr noundef nonnull align 16 dereferenceable(40) %16)
  %18 = getelementptr inbounds nuw %"class.clang::QualType", ptr %5, i32 0, i32 0
  %19 = getelementptr inbounds nuw %"class.llvm::PointerIntPair", ptr %18, i32 0, i32 0
  %20 = getelementptr inbounds nuw %"struct.llvm::detail::PunnedPointer", ptr %19, i32 0, i32 0
  store i64 %17, ptr %20, align 8
  call void @llvm.memcpy.p0.p0.i64(ptr align 8 %2, ptr align 8 %5, i64 8, i1 false)
  br label %21

21:                                               ; preds = %15, %1
  %22 = getelementptr inbounds nuw %"class.clang::QualType", ptr %2, i32 0, i32 0
  %23 = getelementptr inbounds nuw %"class.llvm::PointerIntPair", ptr %22, i32 0, i32 0
  %24 = getelementptr inbounds nuw %"struct.llvm::detail::PunnedPointer", ptr %23, i32 0, i32 0
  %25 = load i64, ptr %24, align 8
  ret i64 %25
}

; Function Attrs: mustprogress nounwind uwtable
define internal i64 @_ZL12GetExprRangeRN5clang10ASTContextEPKNS_4ExprEbb(ptr noundef nonnull align 8 dereferenceable(23096) %0, ptr noundef %1, i1 noundef zeroext %2, i1 noundef zeroext %3) #0 {
  %5 = alloca %"struct.(anonymous namespace)::IntRange", align 4
  %6 = alloca ptr, align 8
  %7 = alloca ptr, align 8
  %8 = alloca i8, align 1
  %9 = alloca i8, align 1
  %10 = alloca %"class.clang::QualType", align 8
  store ptr %0, ptr %6, align 8
  store ptr %1, ptr %7, align 8
  %11 = zext i1 %2 to i8
  store i8 %11, ptr %8, align 1
  %12 = zext i1 %3 to i8
  store i8 %12, ptr %9, align 1
  %13 = load ptr, ptr %6, align 8
  %14 = load ptr, ptr %7, align 8
  %15 = load ptr, ptr %6, align 8
  %16 = load ptr, ptr %7, align 8
  %17 = call i64 @_ZL11GetExprTypePKN5clang4ExprE(ptr noundef %16)
  %18 = getelementptr inbounds nuw %"class.clang::QualType", ptr %10, i32 0, i32 0
  %19 = getelementptr inbounds nuw %"class.llvm::PointerIntPair", ptr %18, i32 0, i32 0
  %20 = getelementptr inbounds nuw %"struct.llvm::detail::PunnedPointer", ptr %19, i32 0, i32 0
  store i64 %17, ptr %20, align 8
  %21 = getelementptr inbounds nuw %"class.clang::QualType", ptr %10, i32 0, i32 0
  %22 = getelementptr inbounds nuw %"class.llvm::PointerIntPair", ptr %21, i32 0, i32 0
  %23 = getelementptr inbounds nuw %"struct.llvm::detail::PunnedPointer", ptr %22, i32 0, i32 0
  %24 = load i64, ptr %23, align 8
  %25 = call noundef i32 @_ZNK5clang10ASTContext11getIntWidthENS_8QualTypeE(ptr noundef nonnull align 8 dereferenceable(23096) %15, i64 %24)
  %26 = load i8, ptr %8, align 1
  %27 = trunc i8 %26 to i1
  %28 = load i8, ptr %9, align 1
  %29 = trunc i8 %28 to i1
  %30 = call i64 @_ZL12GetExprRangeRN5clang10ASTContextEPKNS_4ExprEjbb(ptr noundef nonnull align 8 dereferenceable(23096) %13, ptr noundef %14, i32 noundef %25, i1 noundef zeroext %27, i1 noundef zeroext %29)
  %31 = trunc i64 %30 to i40
  store i40 %31, ptr %5, align 4
  %32 = load i64, ptr %5, align 4
  ret i64 %32
}