; Function Attrs: mustprogress nounwind uwtable
define internal fastcc range(i64 0, 8589934592) i64 @_ZL12GetExprRangeRN5clang10ASTContextEPKNS_4ExprEbb(ptr noundef nonnull align 8 dereferenceable(23096) %0, ptr noundef %1, i1 noundef zeroext %2, i1 noundef zeroext %3) unnamed_addr #0 {
  %5 = getelementptr i8, ptr %1, i64 8
  %.val = load i64, ptr %5, align 8
  %6 = and i64 %.val, -16
  %7 = inttoptr i64 %6 to ptr
  %8 = load ptr, ptr %7, align 16
  %9 = getelementptr inbounds nuw i8, ptr %8, i64 16
  %10 = load i8, ptr %9, align 16
  %.not.i.i = icmp eq i8 %10, 7
  br i1 %.not.i.i, label %_ZNK5clang4Type5getAsINS_10AtomicTypeEEEPKT_v.exit.thread4.i, label %11

11:                                               ; preds = %4
  %12 = getelementptr inbounds nuw i8, ptr %8, i64 8
  %.sroa.0.0.copyload.i.i.i.i.i = load i64, ptr %12, align 8
  %13 = and i64 %.sroa.0.0.copyload.i.i.i.i.i, -16
  %14 = inttoptr i64 %13 to ptr
  %15 = load ptr, ptr %14, align 16
  %16 = getelementptr inbounds nuw i8, ptr %15, i64 16
  %17 = load i8, ptr %16, align 16
  %18 = icmp eq i8 %17, 7
  br i1 %18, label %_ZNK5clang4Type5getAsINS_10AtomicTypeEEEPKT_v.exit.i, label %_ZL11GetExprTypePKN5clang4ExprE.exit

_ZNK5clang4Type5getAsINS_10AtomicTypeEEEPKT_v.exit.i: ; preds = %11
  %19 = tail call noundef ptr @_ZNK5clang4Type27getUnqualifiedDesugaredTypeEv(ptr noundef nonnull align 16 dereferenceable(24) %8) #25
  %.not.i = icmp eq ptr %19, null
  br i1 %.not.i, label %_ZL11GetExprTypePKN5clang4ExprE.exit, label %_ZNK5clang4Type5getAsINS_10AtomicTypeEEEPKT_v.exit.thread4.i

_ZNK5clang4Type5getAsINS_10AtomicTypeEEEPKT_v.exit.thread4.i: ; preds = %_ZNK5clang4Type5getAsINS_10AtomicTypeEEEPKT_v.exit.i, %4
  %.0.i7.i = phi ptr [ %19, %_ZNK5clang4Type5getAsINS_10AtomicTypeEEEPKT_v.exit.i ], [ %8, %4 ]
  %20 = getelementptr inbounds nuw i8, ptr %.0.i7.i, i64 32
  %.sroa.0.0.copyload.i3.i = load i64, ptr %20, align 16
  br label %_ZL11GetExprTypePKN5clang4ExprE.exit

_ZL11GetExprTypePKN5clang4ExprE.exit:             ; preds = %11, %_ZNK5clang4Type5getAsINS_10AtomicTypeEEEPKT_v.exit.i, %_ZNK5clang4Type5getAsINS_10AtomicTypeEEEPKT_v.exit.thread4.i
  %.sroa.0.0.i = phi i64 [ %.val, %_ZNK5clang4Type5getAsINS_10AtomicTypeEEEPKT_v.exit.i ], [ %.sroa.0.0.copyload.i3.i, %_ZNK5clang4Type5getAsINS_10AtomicTypeEEEPKT_v.exit.thread4.i ], [ %.val, %11 ]
  %21 = tail call noundef i32 @_ZNK5clang10ASTContext11getIntWidthENS_8QualTypeE(ptr noundef nonnull align 8 dereferenceable(23096) %0, i64 %.sroa.0.0.i) #25
  %22 = tail call fastcc i64 @_ZL12GetExprRangeRN5clang10ASTContextEPKNS_4ExprEjbb(ptr noundef nonnull align 8 dereferenceable(23096) %0, ptr noundef %1, i32 noundef %21, i1 noundef zeroext %2, i1 noundef zeroext %3)
  ret i64 %22
}